target datalayout = "e-m:e-p270:32:32-p271:32:32-p272:64:64-i64:64-i128:128-f80:128-n8:16:32:64-S128"
target triple = "x86_64-pc-linux-gnu"

%"class.nanogui::Color" = type { %"struct.nanogui::Array" }
%"struct.nanogui::Array" = type { [4 x float] }
%"class.tev::ImageCanvas" = type { %"class.nanogui::Canvas.base", float, float, float, float, i8, %"class.std::__1::shared_ptr", %"class.std::__1::shared_ptr", %"class.std::__1::basic_string", %"struct.nanogui::Matrix", %"class.std::__1::unique_ptr", i32, i32, %"class.std::__1::optional", %"class.std::__1::map", %"class.std::__1::map.25" }
%"class.nanogui::Canvas.base" = type <{ %"class.nanogui::Widget.base", [4 x i8], %"class.nanogui::ref.11", i8, [3 x i8], %"class.nanogui::Color", i8 }>
%"class.nanogui::Widget.base" = type <{ %"class.nanogui::Object.base", [4 x i8], ptr, %"class.nanogui::ref", %"class.nanogui::ref.1", %"struct.nanogui::Array.2", %"struct.nanogui::Array.2", %"struct.nanogui::Array.2", %"class.std::__1::vector", i8, i8, i8, i8, [4 x i8], %"class.std::__1::basic_string", i32, float, i32 }>
%"class.nanogui::Object.base" = type <{ ptr, %"struct.std::__1::atomic" }>
%"struct.std::__1::atomic" = type { %"struct.std::__1::__atomic_base" }
%"struct.std::__1::__atomic_base" = type { %"struct.std::__1::__atomic_base.0" }
%"struct.std::__1::__atomic_base.0" = type { %"struct.std::__1::__cxx_atomic_impl" }
%"struct.std::__1::__cxx_atomic_impl" = type { %"struct.std::__1::__cxx_atomic_base_impl" }
%"struct.std::__1::__cxx_atomic_base_impl" = type { i32 }
%"class.nanogui::ref" = type { ptr }
%"class.nanogui::ref.1" = type { ptr }
%"struct.nanogui::Array.2" = type { [2 x i32] }
%"class.std::__1::vector" = type { ptr, ptr, %"class.std::__1::__compressed_pair" }
%"class.std::__1::__compressed_pair" = type { %"struct.std::__1::__compressed_pair_elem" }
%"struct.std::__1::__compressed_pair_elem" = type { ptr }
%"class.nanogui::ref.11" = type { ptr }
%"class.std::__1::shared_ptr" = type { ptr, ptr }
%"class.std::__1::basic_string" = type { %"class.std::__1::__compressed_pair.4" }
%"class.std::__1::__compressed_pair.4" = type { %"struct.std::__1::__compressed_pair_elem.5" }
%"struct.std::__1::__compressed_pair_elem.5" = type { %"struct.std::__1::basic_string<char>::__rep" }
%"struct.std::__1::basic_string<char>::__rep" = type { %union.anon }
%union.anon = type { %"struct.std::__1::basic_string<char>::__long" }
%"struct.std::__1::basic_string<char>::__long" = type { %struct.anon.6, i64, ptr }
%struct.anon.6 = type { i64 }
%"struct.nanogui::Matrix" = type { [3 x [3 x float]] }
%"class.std::__1::unique_ptr" = type { %"class.std::__1::__compressed_pair.12" }
%"class.std::__1::__compressed_pair.12" = type { %"struct.std::__1::__compressed_pair_elem.13" }
%"struct.std::__1::__compressed_pair_elem.13" = type { ptr }
%"class.std::__1::optional" = type { %"struct.std::__1::__optional_move_assign_base.base", [3 x i8] }
%"struct.std::__1::__optional_move_assign_base.base" = type { %"struct.std::__1::__optional_copy_assign_base.base" }
%"struct.std::__1::__optional_copy_assign_base.base" = type { %"struct.std::__1::__optional_move_base.base" }
%"struct.std::__1::__optional_move_base.base" = type { %"struct.std::__1::__optional_copy_base.base" }
%"struct.std::__1::__optional_copy_base.base" = type { %"struct.std::__1::__optional_storage_base.base" }
%"struct.std::__1::__optional_storage_base.base" = type { %"struct.std::__1::__optional_destruct_base.base" }
%"struct.std::__1::__optional_destruct_base.base" = type <{ %union.anon.15, i8 }>
%union.anon.15 = type { %"struct.tev::Box" }
%"struct.tev::Box" = type { %"struct.nanogui::Array.2", %"struct.nanogui::Array.2" }
%"class.std::__1::map" = type { %"class.std::__1::__tree" }
%"class.std::__1::__tree" = type { ptr, %"class.std::__1::__compressed_pair.16", %"class.std::__1::__compressed_pair.22" }
%"class.std::__1::__compressed_pair.16" = type { %"struct.std::__1::__compressed_pair_elem.17" }
%"struct.std::__1::__compressed_pair_elem.17" = type { %"class.std::__1::__tree_end_node" }
%"class.std::__1::__tree_end_node" = type { ptr }
%"class.std::__1::__compressed_pair.22" = type { %"struct.std::__1::__compressed_pair_elem.23" }
%"struct.std::__1::__compressed_pair_elem.23" = type { i64 }
%"class.std::__1::map.25" = type { %"class.std::__1::__tree.26" }
%"class.std::__1::__tree.26" = type { ptr, %"class.std::__1::__compressed_pair.27", %"class.std::__1::__compressed_pair.32" }
%"class.std::__1::__compressed_pair.27" = type { %"struct.std::__1::__compressed_pair_elem.17" }
%"class.std::__1::__compressed_pair.32" = type { %"struct.std::__1::__compressed_pair_elem.23" }
%"struct.nanogui::Array.40" = type { [2 x float] }

; Function Attrs: mustprogress nounwind uwtable
define linkonce_odr dso_local noundef nonnull align 4 dereferenceable(4) ptr @_ZNK7nanogui5ArrayIfLm2EEixEm(ptr noundef nonnull align 4 dereferenceable(8) %0, i64 noundef %1) #1 comdat align 2 {
  %3 = alloca ptr, align 8
  %4 = alloca i64, align 8
  store ptr %0, ptr %3, align 8
  store i64 %1, ptr %4, align 8
  %5 = load ptr, ptr %3, align 8
  %6 = getelementptr inbounds %"struct.nanogui::Array.40", ptr %5, i32 0, i32 0
  %7 = load i64, ptr %4, align 8
  %8 = getelementptr inbounds [2 x float], ptr %6, i64 0, i64 %7
  ret ptr %8
}

; Function Attrs: mustprogress nounwind uwtable
define linkonce_odr dso_local void @_ZN7nanogui6MatrixIfLm3EEC2Ev(ptr noundef nonnull align 4 dereferenceable(36) %0) unnamed_addr #1 comdat align 2 {
  %2 = alloca ptr, align 8
  store ptr %0, ptr %2, align 8
  ret void
}

; Function Attrs: mustprogress uwtable
define linkonce_odr dso_local void @_ZN7nanogui6MatrixIfLm3EE5scaleERKNS_5ArrayIfLm2EEE(ptr dead_on_unwind noalias writable sret(%"struct.nanogui::Matrix") align 4 %0, ptr noundef nonnull align 4 dereferenceable(8) %1) #4 comdat align 2 {
  %3 = alloca ptr, align 8
  %4 = alloca i64, align 8
  store ptr %1, ptr %3, align 8
  call void @_ZN7nanogui6MatrixIfLm3EEC2Ev(ptr noundef nonnull align 4 dereferenceable(36) %0)
  %5 = getelementptr inbounds %"struct.nanogui::Matrix", ptr %0, i32 0, i32 0
  %6 = getelementptr inbounds [3 x [3 x float]], ptr %5, i64 0, i64 0
  call void @llvm.memset.p0.i64(ptr align 4 %6, i8 0, i64 36, i1 false)
  store i64 0, ptr %4, align 8
  br label %7

7:                                                ; preds = %26, %2
  %8 = load i64, ptr %4, align 8
  %9 = icmp ult i64 %8, 3
  br i1 %9, label %10, label %29

10:                                               ; preds = %7
  %11 = load i64, ptr %4, align 8
  %12 = icmp ult i64 %11, 2
  br i1 %12, label %13, label %18

13:                                               ; preds = %10
  %14 = load ptr, ptr %3, align 8
  %15 = load i64, ptr %4, align 8
  %16 = call noundef nonnull align 4 dereferenceable(4) ptr @_ZNK7nanogui5ArrayIfLm2EEixEm(ptr noundef nonnull align 4 dereferenceable(8) %14, i64 noundef %15)
  %17 = load float, ptr %16, align 4
  br label %19

18:                                               ; preds = %10
  br label %19

19:                                               ; preds = %18, %13
  %20 = phi float [ %17, %13 ], [ 1.000000e+00, %18 ]
  %21 = getelementptr inbounds %"struct.nanogui::Matrix", ptr %0, i32 0, i32 0
  %22 = load i64, ptr %4, align 8
  %23 = getelementptr inbounds [3 x [3 x float]], ptr %21, i64 0, i64 %22
  %24 = load i64, ptr %4, align 8
  %25 = getelementptr inbounds [3 x float], ptr %23, i64 0, i64 %24
  store float %20, ptr %25, align 4
  br label %26

26:                                               ; preds = %19
  %27 = load i64, ptr %4, align 8
  %28 = add i64 %27, 1
  store i64 %28, ptr %4, align 8
  br label %7, !llvm.loop !57

29:                                               ; preds = %7
  ret void
}

; Function Attrs: mustprogress nounwind uwtable
define linkonce_odr dso_local void @_ZN7nanogui5ArrayIfLm2EEC2Ef(ptr noundef nonnull align 4 dereferenceable(8) %0, float noundef %1) unnamed_addr #1 comdat align 2 {
  %3 = alloca ptr, align 8
  %4 = alloca float, align 4
  %5 = alloca i64, align 8
  store ptr %0, ptr %3, align 8
  store float %1, ptr %4, align 4
  %6 = load ptr, ptr %3, align 8
  store i64 0, ptr %5, align 8
  br label %7

7:                                                ; preds = %15, %2
  %8 = load i64, ptr %5, align 8
  %9 = icmp ult i64 %8, 2
  br i1 %9, label %10, label %18

10:                                               ; preds = %7
  %11 = load float, ptr %4, align 4
  %12 = getelementptr inbounds %"struct.nanogui::Array.40", ptr %6, i32 0, i32 0
  %13 = load i64, ptr %5, align 8
  %14 = getelementptr inbounds [2 x float], ptr %12, i64 0, i64 %13
  store float %11, ptr %14, align 4
  br label %15

15:                                               ; preds = %10
  %16 = load i64, ptr %5, align 8
  %17 = add i64 %16, 1
  store i64 %17, ptr %5, align 8
  br label %7, !llvm.loop !11

18:                                               ; preds = %7
  ret void
}

; Function Attrs: mustprogress uwtable
define dso_local void @_ZN3tev11ImageCanvas14resetTransformEv(ptr noundef nonnull align 8 dereferenceable(376) %0) #4 align 2 {
  %2 = alloca ptr, align 8
  %3 = alloca %"struct.nanogui::Matrix", align 4
  %4 = alloca %"struct.nanogui::Array.40", align 4
  store ptr %0, ptr %2, align 8
  %5 = load ptr, ptr %2, align 8
  call void @_ZN7nanogui5ArrayIfLm2EEC2Ef(ptr noundef nonnull align 4 dereferenceable(8) %4, float noundef 1.000000e+00)
  call void @_ZN7nanogui6MatrixIfLm3EE5scaleERKNS_5ArrayIfLm2EEE(ptr dead_on_unwind writable sret(%"struct.nanogui::Matrix") align 4 %3, ptr noundef nonnull align 4 dereferenceable(8) %4)
  %6 = getelementptr inbounds %"class.tev::ImageCanvas", ptr %5, i32 0, i32 9
  call void @llvm.memcpy.p0.p0.i64(ptr align 8 %6, ptr align 4 %3, i64 36, i1 false)
  ret void
}