; Function Attrs: mustprogress nofree norecurse nosync nounwind memory(argmem: readwrite, inaccessiblemem: readwrite) uwtable
define dso_local void @_ZN3tev11ImageCanvas14resetTransformEv(ptr nocapture noundef nonnull writeonly align 8 dereferenceable(376) %0) local_unnamed_addr #10 align 2 {
_ZN7nanogui5ArrayIfLm2EEC2Ef.exit.critedge:
  %1 = alloca %"struct.nanogui::Matrix", align 4
  %2 = alloca %"struct.nanogui::Array.40", align 8
  store <2 x float> <float 1.000000e+00, float 1.000000e+00>, ptr %2, align 8
  tail call void @llvm.experimental.noalias.scope.decl(metadata !191)
  call void @llvm.memset.p0.i64(ptr noundef nonnull align 4 dereferenceable(36) %1, i8 0, i64 32, i1 false), !alias.scope !191
  br label %3

3:                                                ; preds = %_ZN7nanogui5ArrayIfLm2EEC2Ef.exit.critedge, %3
  %.06.i2 = phi i64 [ 0, %_ZN7nanogui5ArrayIfLm2EEC2Ef.exit.critedge ], [ %7, %3 ]
  %4 = getelementptr inbounds [2 x float], ptr %2, i64 0, i64 %.06.i2
  %5 = load float, ptr %4, align 4, !noalias !191
  %6 = getelementptr inbounds [3 x [3 x float]], ptr %1, i64 0, i64 %.06.i2, i64 %.06.i2
  store float %5, ptr %6, align 4, !alias.scope !191
  %7 = add nuw nsw i64 %.06.i2, 1
  %.not.i = icmp eq i64 %7, 2
  br i1 %.not.i, label %_ZN7nanogui6MatrixIfLm3EE5scaleERKNS_5ArrayIfLm2EEE.exit, label %3

_ZN7nanogui6MatrixIfLm3EE5scaleERKNS_5ArrayIfLm2EEE.exit: ; preds = %3
  %8 = getelementptr inbounds i8, ptr %1, i64 32
  store float 1.000000e+00, ptr %8, align 4, !alias.scope !191
  %9 = getelementptr inbounds i8, ptr %0, i64 248
  call void @llvm.memcpy.p0.p0.i64(ptr noundef nonnull align 8 dereferenceable(36) %9, ptr noundef nonnull align 4 dereferenceable(36) %1, i64 36, i1 false)
  ret void
}